target datalayout = "e-m:e-p270:32:32-p271:32:32-p272:64:64-i64:64-i128:128-f80:128-n8:16:32:64-S128"
target triple = "x86_64-pc-linux-gnu"

%struct.stbte_tilemap = type { [200 x [200 x [8 x i16]]], [200 x [200 x [1 x float]]], i32, i32, i32, i32, i32, i32, i32, i32, i32, i32, i32, i32, [100 x ptr], i32, i32, ptr, i32, i32, i32, i8, i8, i8, i8, i32, i32, i32, [8 x %struct.stbte__layer], i32, i32, i32, i32, i32, i32, i32, i32, i16, [4096 x i8], ptr }
%struct.stbte__layer = type { ptr, i32, i32 }

; Function Attrs: nounwind uwtable
define void @stbte_set_dimensions(ptr noundef %0, i32 noundef %1, i32 noundef %2) #0 {
  %4 = alloca ptr, align 8
  %5 = alloca i32, align 4
  %6 = alloca i32, align 4
  store ptr %0, ptr %4, align 8, !tbaa !25
  store i32 %1, ptr %5, align 4, !tbaa !13
  store i32 %2, ptr %6, align 4, !tbaa !13
  %7 = load i32, ptr %5, align 4, !tbaa !13
  %8 = icmp slt i32 %7, 0
  br i1 %8, label %18, label %9

9:                                                ; preds = %3
  %10 = load i32, ptr %6, align 4, !tbaa !13
  %11 = icmp slt i32 %10, 0
  br i1 %11, label %18, label %12

12:                                               ; preds = %9
  %13 = load i32, ptr %5, align 4, !tbaa !13
  %14 = icmp sgt i32 %13, 200
  br i1 %14, label %18, label %15

15:                                               ; preds = %12
  %16 = load i32, ptr %6, align 4, !tbaa !13
  %17 = icmp sgt i32 %16, 200
  br i1 %17, label %18, label %19

18:                                               ; preds = %15, %12, %9, %3
  br label %26

19:                                               ; preds = %15
  %20 = load i32, ptr %5, align 4, !tbaa !13
  %21 = load ptr, ptr %4, align 8, !tbaa !25
  %22 = getelementptr inbounds nuw %struct.stbte_tilemap, ptr %21, i32 0, i32 2
  store i32 %20, ptr %22, align 8, !tbaa !31
  %23 = load i32, ptr %6, align 4, !tbaa !13
  %24 = load ptr, ptr %4, align 8, !tbaa !25
  %25 = getelementptr inbounds nuw %struct.stbte_tilemap, ptr %24, i32 0, i32 3
  store i32 %23, ptr %25, align 4, !tbaa !32
  br label %26

26:                                               ; preds = %19, %18
  ret void
}