; Function Attrs: mustprogress nofree norecurse nosync nounwind willreturn memory(argmem: write) uwtable
define void @stbte_set_dimensions(ptr noundef writeonly captures(none) %0, i32 noundef %1, i32 noundef %2) local_unnamed_addr #5 {
  %4 = or i32 %2, %1
  %or.cond = icmp slt i32 %4, 0
  %5 = icmp sgt i32 %1, 200
  %or.cond3 = or i1 %5, %or.cond
  %6 = icmp sgt i32 %2, 200
  %or.cond5 = or i1 %6, %or.cond3
  br i1 %or.cond5, label %10, label %7

7:                                                ; preds = %3
  %8 = getelementptr inbounds nuw i8, ptr %0, i64 800000
  store i32 %1, ptr %8, align 8, !tbaa !29
  %9 = getelementptr inbounds nuw i8, ptr %0, i64 800004
  store i32 %2, ptr %9, align 4, !tbaa !30
  br label %10

10:                                               ; preds = %3, %7
  ret void
}